(lp1
ccopy_reg
_reconstructor
p2
(cnetworkx.classes.graph
Graph
p3
c__builtin__
object
p4
NtRp5
(dp6
S'node'
p7
(dp8
I0
(dp9
sI1
(dp10
sI2
(dp11
sI3
(dp12
sI4
(dp13
sI5
(dp14
sI6
(dp15
sI7
(dp16
sI8
(dp17
sI9
(dp18
sI10
(dp19
sI11
(dp20
sI12
(dp21
sI13
(dp22
sI14
(dp23
sI15
(dp24
sI16
(dp25
sI17
(dp26
sI18
(dp27
sI19
(dp28
sI20
(dp29
sI21
(dp30
sI22
(dp31
sI23
(dp32
sI24
(dp33
sI25
(dp34
sI26
(dp35
sI27
(dp36
sI28
(dp37
sI29
(dp38
sI30
(dp39
sI31
(dp40
sI32
(dp41
sI33
(dp42
ssS'node_dict_factory'
p43
c__builtin__
dict
p44
sS'edge_attr_dict_factory'
p45
g44
sS'edge'
p46
(dp47
I0
(dp48
I1
(dp49
sI2
(dp50
sI3
(dp51
sI5
(dp52
sI6
(dp53
ssI1
(dp54
I0
g49
sI2
(dp55
sI3
(dp56
sI14
(dp57
sI15
(dp58
sI17
(dp59
sI31
(dp60
ssI2
(dp61
I0
g50
sI1
g55
sI3
(dp62
sI5
(dp63
sI8
(dp64
sI9
(dp65
sI10
(dp66
sI11
(dp67
sI12
(dp68
sI13
(dp69
sI15
(dp70
sI24
(dp71
sI27
(dp72
sI29
(dp73
ssI3
(dp74
I0
g51
sI1
g56
sI2
g62
sI4
(dp75
sI5
(dp76
sI6
(dp77
sI32
(dp78
sI18
(dp79
sI19
(dp80
sI20
(dp81
sI23
(dp82
sI26
(dp83
sI31
(dp84
ssI4
(dp85
I3
g75
sI6
(dp86
sI7
(dp87
sI8
(dp88
sI9
(dp89
sI10
(dp90
sI11
(dp91
sI12
(dp92
ssI5
(dp93
I0
g52
sI32
(dp94
sI2
g63
sI3
g76
sI33
(dp95
sI14
(dp96
sI15
(dp97
sI17
(dp98
sI28
(dp99
sI31
(dp100
ssI6
(dp101
I0
g53
sI3
g77
sI4
g86
ssI7
(dp102
I9
(dp103
sI4
g87
ssI8
(dp104
I2
g64
sI4
g88
ssI9
(dp105
I2
g65
sI4
g89
sI10
(dp106
sI7
g103
ssI10
(dp107
I9
g106
sI2
g66
sI11
(dp108
sI4
g90
ssI11
(dp109
I12
(dp110
sI10
g108
sI4
g91
sI2
g67
ssI12
(dp111
I2
g68
sI11
g110
sI4
g92
sI13
(dp112
ssI13
(dp113
I2
g69
sI12
g112
ssI14
(dp114
I1
g57
sI5
g96
sI16
(dp115
sI17
(dp116
sI19
(dp117
sI20
(dp118
sI21
(dp119
sI22
(dp120
sI23
(dp121
sI26
(dp122
sI31
(dp123
ssI15
(dp124
I1
g58
sI2
g70
sI5
g97
sI33
(dp125
sI25
(dp126
sI28
(dp127
ssI16
(dp128
I18
(dp129
sI19
(dp130
sI22
(dp131
sI14
g115
ssI17
(dp132
I1
g59
sI5
g98
sI14
g116
ssI18
(dp133
I16
g129
sI3
g79
sI22
(dp134
ssI19
(dp135
I16
g130
sI3
g80
sI14
g117
ssI20
(dp136
I3
g81
sI14
g118
ssI21
(dp137
I26
(dp138
sI30
(dp139
sI14
g119
sI23
(dp140
ssI22
(dp141
I16
g131
sI18
g134
sI14
g120
ssI23
(dp142
I3
g82
sI21
g140
sI14
g121
ssI24
(dp143
I2
g71
sI27
(dp144
ssI25
(dp145
I33
(dp146
sI28
(dp147
sI15
g126
ssI26
(dp148
I30
(dp149
sI3
g83
sI21
g138
sI14
g122
ssI27
(dp150
I24
g144
sI2
g72
ssI28
(dp151
I25
g147
sI5
g99
sI15
g127
ssI29
(dp152
I2
g73
ssI30
(dp153
I26
g149
sI21
g139
ssI31
(dp154
I1
g60
sI3
g84
sI5
g100
sI14
g123
ssI32
(dp155
I3
g78
sI5
g94
ssI33
(dp156
I25
g146
sI5
g95
sI15
g125
sssS'graph'
p157
(dp158
sS'adjlist_dict_factory'
p159
g44
sS'adj'
p160
g47
sbag2
(g3
g4
NtRp161
(dp162
g7
(dp163
I0
(dp164
sI1
(dp165
sI2
(dp166
sI3
(dp167
sI4
(dp168
sI5
(dp169
sI6
(dp170
sI7
(dp171
sI8
(dp172
sI9
(dp173
sI10
(dp174
sI11
(dp175
sI12
(dp176
sI13
(dp177
sI14
(dp178
sI15
(dp179
sI16
(dp180
sI17
(dp181
sI18
(dp182
sI19
(dp183
sI20
(dp184
sI21
(dp185
sI22
(dp186
sI23
(dp187
sI24
(dp188
sI25
(dp189
sI26
(dp190
sI27
(dp191
sI28
(dp192
sI29
(dp193
sI30
(dp194
sI31
(dp195
sI32
(dp196
sI33
(dp197
ssg43
g44
sg45
g44
sg46
(dp198
I0
(dp199
I1
(dp200
sI2
(dp201
sI3
(dp202
sI5
(dp203
ssI1
(dp204
I0
g200
sI2
(dp205
sI3
(dp206
sI5
(dp207
sI6
(dp208
sI7
(dp209
sI8
(dp210
sI9
(dp211
sI10
(dp212
sI11
(dp213
sI12
(dp214
sI13
(dp215
ssI2
(dp216
I0
g201
sI1
g205
sI3
(dp217
sI5
(dp218
sI6
(dp219
sI10
(dp220
sI12
(dp221
sI14
(dp222
sI15
(dp223
sI16
(dp224
ssI3
(dp225
I0
g202
sI1
g206
sI2
g217
sI4
(dp226
sI5
(dp227
sI10
(dp228
sI11
(dp229
sI27
(dp230
ssI4
(dp231
I10
(dp232
sI3
g226
ssI5
(dp233
I0
g203
sI1
g207
sI2
g218
sI3
g227
ssI6
(dp234
I1
g208
sI2
g219
ssI7
(dp235
I8
(dp236
sI1
g209
sI9
(dp237
ssI8
(dp238
I1
g210
sI7
g236
ssI9
(dp239
I1
g211
sI7
g237
ssI10
(dp240
I1
g212
sI2
g220
sI3
g228
sI4
g232
sI11
(dp241
sI12
(dp242
sI13
(dp243
sI17
(dp244
sI18
(dp245
sI19
(dp246
sI27
(dp247
sI31
(dp248
ssI11
(dp249
I27
(dp250
sI1
g213
sI10
g241
sI3
g229
sI12
(dp251
ssI12
(dp252
I1
g214
sI2
g221
sI10
g242
sI11
g251
sI13
(dp253
sI14
(dp254
sI28
(dp255
ssI13
(dp256
I1
g215
sI10
g243
sI12
g253
sI14
(dp257
sI15
(dp258
sI28
(dp259
sI29
(dp260
ssI14
(dp261
I32
(dp262
sI33
(dp263
sI2
g222
sI12
g254
sI13
g257
sI15
(dp264
sI16
(dp265
sI28
(dp266
sI31
(dp267
ssI15
(dp268
I32
(dp269
sI2
g223
sI13
g258
sI14
g264
sI16
(dp270
sI17
(dp271
sI29
(dp272
sI30
(dp273
ssI16
(dp274
I2
g224
sI14
g265
sI15
g270
sI17
(dp275
sI19
(dp276
sI20
(dp277
sI21
(dp278
sI22
(dp279
sI23
(dp280
sI24
(dp281
sI25
(dp282
sI26
(dp283
sI30
(dp284
ssI17
(dp285
I10
g244
sI15
g271
sI16
g275
sI18
(dp286
sI19
(dp287
sI20
(dp288
sI21
(dp289
sI22
(dp290
sI23
(dp291
sI24
(dp292
sI25
(dp293
sI26
(dp294
sI30
(dp295
sI31
(dp296
ssI18
(dp297
I17
g286
sI10
g245
sI19
(dp298
ssI19
(dp299
I16
g276
sI17
g287
sI18
g298
sI10
g246
ssI20
(dp300
I16
g277
sI17
g288
ssI21
(dp301
I16
g278
sI17
g289
ssI22
(dp302
I16
g279
sI17
g290
ssI23
(dp303
I16
g280
sI17
g291
ssI24
(dp304
I16
g281
sI17
g292
ssI25
(dp305
I16
g282
sI17
g293
ssI26
(dp306
I16
g283
sI17
g294
ssI27
(dp307
I11
g250
sI10
g247
sI3
g230
ssI28
(dp308
I12
g255
sI13
g259
sI14
g266
ssI29
(dp309
I32
(dp310
sI13
g260
sI15
g272
ssI30
(dp311
I16
g284
sI17
g295
sI15
g273
ssI31
(dp312
I17
g296
sI10
g248
sI14
g267
ssI32
(dp313
I33
(dp314
sI29
g310
sI14
g262
sI15
g269
ssI33
(dp315
I32
g314
sI14
g263
sssg157
(dp316
sg159
g44
sg160
g198
sbag2
(g3
g4
NtRp317
(dp318
g7
(dp319
I0
(dp320
sI1
(dp321
sI2
(dp322
sI3
(dp323
sI4
(dp324
sI5
(dp325
sI6
(dp326
sI7
(dp327
sI8
(dp328
sI9
(dp329
sI10
(dp330
sI11
(dp331
sI12
(dp332
sI13
(dp333
sI14
(dp334
sI15
(dp335
sI16
(dp336
sI17
(dp337
sI18
(dp338
sI19
(dp339
sI20
(dp340
sI21
(dp341
sI22
(dp342
sI23
(dp343
sI24
(dp344
sI25
(dp345
sI26
(dp346
sI27
(dp347
sI28
(dp348
sI29
(dp349
sI30
(dp350
sI31
(dp351
sI32
(dp352
sI33
(dp353
ssg43
g44
sg45
g44
sg46
(dp354
I0
(dp355
I1
(dp356
sI2
(dp357
sI3
(dp358
sI5
(dp359
sI7
(dp360
sI8
(dp361
sI10
(dp362
sI17
(dp363
ssI1
(dp364
I0
g356
sI32
(dp365
sI2
(dp366
sI3
(dp367
sI5
(dp368
sI33
(dp369
sI8
(dp370
sI10
(dp371
sI18
(dp372
sI19
(dp373
sI20
(dp374
sI24
(dp375
sI25
(dp376
sI26
(dp377
sI27
(dp378
sI29
(dp379
sI30
(dp380
sI31
(dp381
ssI2
(dp382
I0
g357
sI1
g366
sI3
(dp383
sI5
(dp384
sI6
(dp385
sI9
(dp386
sI12
(dp387
sI13
(dp388
sI14
(dp389
sI15
(dp390
sI16
(dp391
sI17
(dp392
sI18
(dp393
sI22
(dp394
ssI3
(dp395
I0
g358
sI1
g367
sI2
g383
sI33
(dp396
sI4
(dp397
sI5
(dp398
sI7
(dp399
sI8
(dp400
sI10
(dp401
sI17
(dp402
sI19
(dp403
sI20
(dp404
sI32
(dp405
sI22
(dp406
sI23
(dp407
sI24
(dp408
sI25
(dp409
sI26
(dp410
sI28
(dp411
sI31
(dp412
ssI4
(dp413
I3
g397
sI6
(dp414
sI7
(dp415
sI8
(dp416
sI9
(dp417
sI10
(dp418
sI11
(dp419
sI12
(dp420
sI13
(dp421
sI14
(dp422
sI15
(dp423
sI16
(dp424
sI17
(dp425
ssI5
(dp426
I0
g359
sI1
g368
sI2
g384
sI3
g398
ssI6
(dp427
I2
g385
sI4
g414
ssI7
(dp428
I0
g360
sI33
(dp429
sI3
g399
sI4
g415
sI30
(dp430
ssI8
(dp431
I0
g361
sI1
g370
sI3
g400
sI4
g416
ssI9
(dp432
I2
g386
sI4
g417
ssI10
(dp433
I0
g362
sI1
g371
sI3
g401
sI4
g418
ssI11
(dp434
I12
(dp435
sI4
g419
sI13
(dp436
ssI12
(dp437
I2
g387
sI11
g435
sI4
g420
sI21
(dp438
sI14
(dp439
ssI13
(dp440
I16
(dp441
sI2
g388
sI11
g436
sI4
g421
ssI14
(dp442
I12
g439
sI2
g389
sI4
g422
sI21
(dp443
ssI15
(dp444
I2
g390
sI4
g423
ssI16
(dp445
I2
g391
sI4
g424
sI13
g441
ssI17
(dp446
I0
g363
sI2
g392
sI3
g402
sI4
g425
ssI18
(dp447
I1
g372
sI2
g393
ssI19
(dp448
I1
g373
sI3
g403
ssI20
(dp449
I1
g374
sI3
g404
ssI21
(dp450
I12
g438
sI14
g443
ssI22
(dp451
I2
g394
sI3
g406
ssI23
(dp452
I24
(dp453
sI26
(dp454
sI3
g407
ssI24
(dp455
I1
g375
sI3
g408
sI29
(dp456
sI23
g453
ssI25
(dp457
I1
g376
sI3
g409
ssI26
(dp458
I27
(dp459
sI1
g377
sI3
g410
sI28
(dp460
sI23
g454
ssI27
(dp461
I1
g378
sI26
g459
sI28
(dp462
ssI28
(dp463
I3
g411
sI26
g460
sI27
g462
ssI29
(dp464
I24
g456
sI1
g379
ssI30
(dp465
I1
g380
sI7
g430
ssI31
(dp466
I1
g381
sI3
g412
ssI32
(dp467
I1
g365
sI3
g405
ssI33
(dp468
I1
g369
sI3
g396
sI7
g429
sssg157
(dp469
sg159
g44
sg160
g354
sbag2
(g3
g4
NtRp470
(dp471
g7
(dp472
I0
(dp473
sI1
(dp474
sI2
(dp475
sI3
(dp476
sI4
(dp477
sI5
(dp478
sI6
(dp479
sI7
(dp480
sI8
(dp481
sI9
(dp482
sI10
(dp483
sI11
(dp484
sI12
(dp485
sI13
(dp486
sI14
(dp487
sI15
(dp488
sI16
(dp489
sI17
(dp490
sI18
(dp491
sI19
(dp492
sI20
(dp493
sI21
(dp494
sI22
(dp495
sI23
(dp496
sI24
(dp497
sI25
(dp498
sI26
(dp499
sI27
(dp500
sI28
(dp501
sI29
(dp502
sI30
(dp503
sI31
(dp504
sI32
(dp505
sI33
(dp506
ssg43
g44
sg45
g44
sg46
(dp507
I0
(dp508
I1
(dp509
sI2
(dp510
sI3
(dp511
sI5
(dp512
sI6
(dp513
sI7
(dp514
sI9
(dp515
sI10
(dp516
sI11
(dp517
sI14
(dp518
sI15
(dp519
sI16
(dp520
sI17
(dp521
sI19
(dp522
ssI1
(dp523
I0
g509
sI2
(dp524
sI3
(dp525
sI8
(dp526
sI9
(dp527
sI12
(dp528
sI13
(dp529
ssI2
(dp530
I0
g510
sI1
g524
sI3
(dp531
sI5
(dp532
sI6
(dp533
sI7
(dp534
ssI3
(dp535
I0
g511
sI1
g525
sI2
g531
sI4
(dp536
sI5
(dp537
sI11
(dp538
sI15
(dp539
sI17
(dp540
ssI4
(dp541
I3
g536
sI8
(dp542
sI9
(dp543
sI20
(dp544
sI21
(dp545
sI23
(dp546
ssI5
(dp547
I0
g512
sI2
g532
sI3
g537
sI6
(dp548
ssI6
(dp549
I0
g513
sI2
g533
sI5
g548
ssI7
(dp550
I0
g514
sI2
g534
ssI8
(dp551
I1
g526
sI4
g542
sI14
(dp552
sI15
(dp553
sI16
(dp554
sI19
(dp555
ssI9
(dp556
I0
g515
sI1
g527
sI10
(dp557
sI4
g543
ssI10
(dp558
I0
g516
sI9
g557
ssI11
(dp559
I0
g517
sI3
g538
ssI12
(dp560
I1
g528
sI13
(dp561
ssI13
(dp562
I1
g529
sI12
g561
ssI14
(dp563
I0
g518
sI8
g552
sI16
(dp564
sI18
(dp565
sI20
(dp566
sI21
(dp567
sI23
(dp568
ssI15
(dp569
I8
g553
sI0
g519
sI3
g539
sI17
(dp570
ssI16
(dp571
I8
g554
sI0
g520
sI19
(dp572
sI14
g564
ssI17
(dp573
I0
g521
sI3
g540
sI15
g570
ssI18
(dp574
I14
g565
sI20
(dp575
sI23
(dp576
sI24
(dp577
sI25
(dp578
sI26
(dp579
ssI19
(dp580
I8
g555
sI16
g572
sI0
g522
ssI20
(dp581
I32
(dp582
sI33
(dp583
sI4
g544
sI14
g566
sI18
g575
sI22
(dp584
sI25
(dp585
sI27
(dp586
sI29
(dp587
sI30
(dp588
sI31
(dp589
ssI21
(dp590
I4
g545
sI14
g567
ssI22
(dp591
I24
(dp592
sI25
(dp593
sI27
(dp594
sI20
g584
ssI23
(dp595
I18
g576
sI4
g546
sI14
g568
ssI24
(dp596
I18
g577
sI27
(dp597
sI22
g592
ssI25
(dp598
I18
g578
sI20
g585
sI26
(dp599
sI22
g593
ssI26
(dp600
I25
g599
sI18
g579
ssI27
(dp601
I33
(dp602
sI20
g586
sI22
g594
sI24
g597
sI28
(dp603
sI29
(dp604
ssI28
(dp605
I33
(dp606
sI27
g603
sI29
(dp607
ssI29
(dp608
I32
(dp609
sI20
g587
sI27
g604
sI28
g607
sI30
(dp610
sI31
(dp611
ssI30
(dp612
I20
g588
sI29
g610
ssI31
(dp613
I20
g589
sI29
g611
ssI32
(dp614
I20
g582
sI29
g609
ssI33
(dp615
I28
g606
sI27
g602
sI20
g583
sssg157
(dp616
sg159
g44
sg160
g507
sbag2
(g3
g4
NtRp617
(dp618
g7
(dp619
I0
(dp620
sI1
(dp621
sI2
(dp622
sI3
(dp623
sI4
(dp624
sI5
(dp625
sI6
(dp626
sI7
(dp627
sI8
(dp628
sI9
(dp629
sI10
(dp630
sI11
(dp631
sI12
(dp632
sI13
(dp633
sI14
(dp634
sI15
(dp635
sI16
(dp636
sI17
(dp637
sI18
(dp638
sI19
(dp639
sI20
(dp640
sI21
(dp641
sI22
(dp642
sI23
(dp643
sI24
(dp644
sI25
(dp645
sI26
(dp646
sI27
(dp647
sI28
(dp648
sI29
(dp649
sI30
(dp650
sI31
(dp651
sI32
(dp652
sI33
(dp653
ssg43
g44
sg45
g44
sg46
(dp654
I0
(dp655
I1
(dp656
sI2
(dp657
sI3
(dp658
sI7
(dp659
sI8
(dp660
sI10
(dp661
sI12
(dp662
sI13
(dp663
sI14
(dp664
sI16
(dp665
sI21
(dp666
sI22
(dp667
sI23
(dp668
sI24
(dp669
sI31
(dp670
ssI1
(dp671
I0
g656
sI32
(dp672
sI2
(dp673
sI3
(dp674
sI33
(dp675
sI6
(dp676
sI7
(dp677
sI8
(dp678
sI9
(dp679
sI10
(dp680
sI11
(dp681
sI12
(dp682
sI13
(dp683
sI15
(dp684
sI16
(dp685
sI21
(dp686
sI22
(dp687
sI23
(dp688
sI25
(dp689
sI30
(dp690
ssI2
(dp691
I0
g657
sI1
g673
sI3
(dp692
sI5
(dp693
sI21
(dp694
sI22
(dp695
sI23
(dp696
sI26
(dp697
ssI3
(dp698
I0
g658
sI1
g674
sI2
g692
sI4
(dp699
sI21
(dp700
ssI4
(dp701
I3
g699
sI5
(dp702
ssI5
(dp703
I2
g693
sI4
g702
ssI6
(dp704
I8
(dp705
sI1
g676
sI7
(dp706
ssI7
(dp707
I0
g659
sI1
g677
sI6
g706
ssI8
(dp708
I0
g660
sI1
g678
sI6
g705
ssI9
(dp709
I1
g679
sI12
(dp710
ssI10
(dp711
I0
g661
sI1
g680
ssI11
(dp712
I1
g681
sI13
(dp713
sI14
(dp714
sI15
(dp715
ssI12
(dp716
I0
g662
sI1
g682
sI9
g710
ssI13
(dp717
I0
g663
sI1
g683
sI11
g713
ssI14
(dp718
I0
g664
sI18
(dp719
sI11
g714
sI20
(dp720
sI15
(dp721
ssI15
(dp722
I1
g684
sI11
g715
sI14
g721
sI17
(dp723
sI18
(dp724
sI20
(dp725
ssI16
(dp726
I0
g665
sI1
g685
ssI17
(dp727
I18
(dp728
sI19
(dp729
sI20
(dp730
sI15
g723
ssI18
(dp731
I17
g728
sI19
(dp732
sI14
g719
sI15
g724
ssI19
(dp733
I17
g729
sI18
g732
ssI20
(dp734
I17
g730
sI14
g720
sI15
g725
ssI21
(dp735
I0
g666
sI1
g686
sI2
g694
sI3
g700
sI22
(dp736
ssI22
(dp737
I0
g667
sI1
g687
sI2
g695
sI21
g736
sI23
(dp738
ssI23
(dp739
I0
g668
sI1
g688
sI2
g696
sI32
(dp740
sI22
g738
sI24
(dp741
sI25
(dp742
sI26
(dp743
sI27
(dp744
sI28
(dp745
sI29
(dp746
sI31
(dp747
ssI24
(dp748
I0
g669
sI23
g741
sI25
(dp749
sI26
(dp750
sI27
(dp751
sI28
(dp752
sI29
(dp753
ssI25
(dp754
I24
g749
sI1
g689
sI26
(dp755
sI23
g742
ssI26
(dp756
I24
g750
sI25
g755
sI2
g697
sI23
g743
ssI27
(dp757
I24
g751
sI23
g744
ssI28
(dp758
I24
g752
sI23
g745
ssI29
(dp759
I24
g753
sI23
g746
ssI30
(dp760
I1
g690
ssI31
(dp761
I0
g670
sI32
(dp762
sI23
g747
ssI32
(dp763
I1
g672
sI31
g762
sI33
(dp764
sI23
g740
ssI33
(dp765
I32
g764
sI1
g675
sssg157
(dp766
sg159
g44
sg160
g654
sbag2
(g3
g4
NtRp767
(dp768
g7
(dp769
I0
(dp770
sI1
(dp771
sI2
(dp772
sI3
(dp773
sI4
(dp774
sI5
(dp775
sI6
(dp776
sI7
(dp777
sI8
(dp778
sI9
(dp779
sI10
(dp780
sI11
(dp781
sI12
(dp782
sI13
(dp783
sI14
(dp784
sI15
(dp785
sI16
(dp786
sI17
(dp787
sI18
(dp788
sI19
(dp789
sI20
(dp790
sI21
(dp791
sI22
(dp792
sI23
(dp793
sI24
(dp794
sI25
(dp795
sI26
(dp796
sI27
(dp797
sI28
(dp798
sI29
(dp799
sI30
(dp800
sI31
(dp801
sI32
(dp802
sI33
(dp803
ssg43
g44
sg45
g44
sg46
(dp804
I0
(dp805
I1
(dp806
sI2
(dp807
sI3
(dp808
sI5
(dp809
sI6
(dp810
sI7
(dp811
sI8
(dp812
sI10
(dp813
sI13
(dp814
sI19
(dp815
sI23
(dp816
sI24
(dp817
sI26
(dp818
sI27
(dp819
sI29
(dp820
sI30
(dp821
sI31
(dp822
ssI1
(dp823
I0
g806
sI2
(dp824
sI3
(dp825
sI5
(dp826
sI6
(dp827
sI9
(dp828
sI10
(dp829
ssI2
(dp830
I0
g807
sI1
g824
sI3
(dp831
sI16
(dp832
sI7
(dp833
ssI3
(dp834
I0
g808
sI1
g825
sI2
g831
sI4
(dp835
sI7
(dp836
sI8
(dp837
sI17
(dp838
sI25
(dp839
ssI4
(dp840
I3
g835
ssI5
(dp841
I0
g809
sI1
g826
ssI6
(dp842
I0
g810
sI1
g827
ssI7
(dp843
I0
g811
sI2
g833
sI3
g836
sI8
(dp844
sI9
(dp845
sI10
(dp846
sI12
(dp847
sI13
(dp848
sI14
(dp849
sI16
(dp850
sI17
(dp851
sI25
(dp852
ssI8
(dp853
I0
g812
sI3
g837
sI7
g844
sI9
(dp854
sI10
(dp855
sI11
(dp856
sI17
(dp857
sI21
(dp858
ssI9
(dp859
I1
g828
sI7
g845
sI8
g854
sI10
(dp860
sI11
(dp861
sI12
(dp862
sI13
(dp863
sI15
(dp864
sI19
(dp865
sI20
(dp866
ssI10
(dp867
I0
g813
sI1
g829
sI7
g846
sI8
g855
sI9
g860
sI12
(dp868
sI13
(dp869
sI18
(dp870
ssI11
(dp871
I8
g856
sI9
g861
ssI12
(dp872
I7
g847
sI9
g862
sI10
g868
sI13
(dp873
sI18
(dp874
sI20
(dp875
ssI13
(dp876
I0
g814
sI7
g848
sI9
g863
sI10
g869
sI12
g873
sI15
(dp877
sI19
(dp878
sI23
(dp879
ssI14
(dp880
I7
g849
ssI15
(dp881
I9
g864
sI13
g877
sI23
(dp882
ssI16
(dp883
I25
(dp884
sI2
g832
sI7
g850
ssI17
(dp885
I8
g857
sI3
g838
sI21
(dp886
sI7
g851
ssI18
(dp887
I10
g870
sI12
g874
ssI19
(dp888
I0
g815
sI9
g865
sI13
g878
sI22
(dp889
sI26
(dp890
sI27
(dp891
ssI20
(dp892
I9
g866
sI12
g875
ssI21
(dp893
I8
g858
sI17
g886
ssI22
(dp894
I27
(dp895
sI26
(dp896
sI19
g889
ssI23
(dp897
I0
g816
sI24
(dp898
sI13
g879
sI15
g882
ssI24
(dp899
I0
g817
sI23
g898
ssI25
(dp900
I16
g884
sI3
g839
sI7
g852
ssI26
(dp901
I0
g818
sI19
g890
sI22
g896
ssI27
(dp902
I0
g819
sI32
(dp903
sI19
g891
sI22
g895
sI28
(dp904
sI30
(dp905
ssI28
(dp906
I33
(dp907
sI27
g904
sI29
(dp908
sI30
(dp909
ssI29
(dp910
I0
g820
sI32
(dp911
sI28
g908
sI33
(dp912
ssI30
(dp913
I0
g821
sI27
g905
sI28
g909
sI31
(dp914
ssI31
(dp915
I0
g822
sI30
g914
ssI32
(dp916
I33
(dp917
sI27
g903
sI29
g911
ssI33
(dp918
I32
g917
sI28
g907
sI29
g912
sssg157
(dp919
sg159
g44
sg160
g804
sbag2
(g3
g4
NtRp920
(dp921
g7
(dp922
I0
(dp923
sI1
(dp924
sI2
(dp925
sI3
(dp926
sI4
(dp927
sI5
(dp928
sI6
(dp929
sI7
(dp930
sI8
(dp931
sI9
(dp932
sI10
(dp933
sI11
(dp934
sI12
(dp935
sI13
(dp936
sI14
(dp937
sI15
(dp938
sI16
(dp939
sI17
(dp940
sI18
(dp941
sI19
(dp942
sI20
(dp943
sI21
(dp944
sI22
(dp945
sI23
(dp946
sI24
(dp947
sI25
(dp948
sI26
(dp949
sI27
(dp950
sI28
(dp951
sI29
(dp952
sI30
(dp953
sI31
(dp954
sI32
(dp955
sI33
(dp956
ssg43
g44
sg45
g44
sg46
(dp957
I0
(dp958
I1
(dp959
sI2
(dp960
sI3
(dp961
sI7
(dp962
sI8
(dp963
sI10
(dp964
sI11
(dp965
sI12
(dp966
sI13
(dp967
sI15
(dp968
sI16
(dp969
sI17
(dp970
sI18
(dp971
sI19
(dp972
sI25
(dp973
sI27
(dp974
sI28
(dp975
ssI1
(dp976
I0
g959
sI2
(dp977
sI3
(dp978
sI7
(dp979
sI8
(dp980
sI9
(dp981
sI12
(dp982
sI20
(dp983
sI21
(dp984
sI22
(dp985
sI23
(dp986
sI25
(dp987
sI26
(dp988
ssI2
(dp989
I0
g960
sI1
g977
sI3
(dp990
sI5
(dp991
sI6
(dp992
sI33
(dp993
sI27
(dp994
sI29
(dp995
sI30
(dp996
ssI3
(dp997
I0
g961
sI1
g978
sI2
g990
sI4
(dp998
sI33
(dp999
sI9
(dp1000
sI15
(dp1001
sI20
(dp1002
sI25
(dp1003
sI26
(dp1004
sI27
(dp1005
sI28
(dp1006
ssI4
(dp1007
I3
g998
sI5
(dp1008
sI10
(dp1009
sI16
(dp1010
sI23
(dp1011
sI25
(dp1012
ssI5
(dp1013
I2
g991
sI4
g1008
ssI6
(dp1014
I2
g992
ssI7
(dp1015
I0
g962
sI1
g979
ssI8
(dp1016
I0
g963
sI1
g980
ssI9
(dp1017
I27
(dp1018
sI1
g981
sI3
g1000
ssI10
(dp1019
I0
g964
sI4
g1009
ssI11
(dp1020
I0
g965
sI17
(dp1021
sI19
(dp1022
sI13
(dp1023
sI14
(dp1024
ssI12
(dp1025
I0
g966
sI1
g982
ssI13
(dp1026
I0
g967
sI11
g1023
ssI14
(dp1027
I19
(dp1028
sI17
(dp1029
sI11
g1024
ssI15
(dp1030
I0
g968
sI3
g1001
sI20
(dp1031
ssI16
(dp1032
I0
g969
sI24
(dp1033
sI4
g1010
sI23
(dp1034
ssI17
(dp1035
I0
g970
sI18
(dp1036
sI11
g1021
sI14
g1029
ssI18
(dp1037
I0
g971
sI17
g1036
ssI19
(dp1038
I0
g972
sI11
g1022
sI14
g1028
ssI20
(dp1039
I1
g983
sI3
g1002
sI21
(dp1040
sI22
(dp1041
sI15
g1031
ssI21
(dp1042
I1
g984
sI20
g1040
ssI22
(dp1043
I1
g985
sI20
g1041
ssI23
(dp1044
I16
g1034
sI1
g986
sI4
g1011
ssI24
(dp1045
I16
g1033
ssI25
(dp1046
I0
g973
sI1
g987
sI3
g1003
sI4
g1012
ssI26
(dp1047
I1
g988
sI3
g1004
ssI27
(dp1048
I0
g974
sI32
(dp1049
sI2
g994
sI3
g1005
sI9
g1018
sI28
(dp1050
sI30
(dp1051
sI31
(dp1052
ssI28
(dp1053
I0
g975
sI32
(dp1054
sI3
g1006
sI27
g1050
sI29
(dp1055
sI30
(dp1056
ssI29
(dp1057
I2
g995
sI28
g1055
sI30
(dp1058
sI31
(dp1059
ssI30
(dp1060
I2
g996
sI27
g1051
sI28
g1056
sI29
g1058
ssI31
(dp1061
I27
g1052
sI29
g1059
ssI32
(dp1062
I27
g1049
sI28
g1054
ssI33
(dp1063
I2
g993
sI3
g999
sssg157
(dp1064
sg159
g44
sg160
g957
sbag2
(g3
g4
NtRp1065
(dp1066
g7
(dp1067
I0
(dp1068
sI1
(dp1069
sI2
(dp1070
sI3
(dp1071
sI4
(dp1072
sI5
(dp1073
sI6
(dp1074
sI7
(dp1075
sI8
(dp1076
sI9
(dp1077
sI10
(dp1078
sI11
(dp1079
sI12
(dp1080
sI13
(dp1081
sI14
(dp1082
sI15
(dp1083
sI16
(dp1084
sI17
(dp1085
sI18
(dp1086
sI19
(dp1087
sI20
(dp1088
sI21
(dp1089
sI22
(dp1090
sI23
(dp1091
sI24
(dp1092
sI25
(dp1093
sI26
(dp1094
sI27
(dp1095
sI28
(dp1096
sI29
(dp1097
sI30
(dp1098
sI31
(dp1099
sI32
(dp1100
sI33
(dp1101
ssg43
g44
sg45
g44
sg46
(dp1102
I0
(dp1103
I1
(dp1104
sI2
(dp1105
sI3
(dp1106
sI5
(dp1107
sI6
(dp1108
sI8
(dp1109
sI9
(dp1110
sI18
(dp1111
ssI1
(dp1112
I0
g1104
sI2
(dp1113
sI3
(dp1114
ssI2
(dp1115
I0
g1105
sI1
g1113
sI3
(dp1116
sI5
(dp1117
sI7
(dp1118
sI24
(dp1119
ssI3
(dp1120
I0
g1106
sI1
g1114
sI2
g1116
sI4
(dp1121
sI5
(dp1122
sI11
(dp1123
sI14
(dp1124
sI22
(dp1125
sI23
(dp1126
ssI4
(dp1127
I3
g1121
sI7
(dp1128
sI8
(dp1129
sI18
(dp1130
sI19
(dp1131
sI24
(dp1132
ssI5
(dp1133
I0
g1107
sI2
g1117
sI3
g1122
sI6
(dp1134
ssI6
(dp1135
I0
g1108
sI5
g1134
ssI7
(dp1136
I2
g1118
sI4
g1128
sI8
(dp1137
sI9
(dp1138
sI10
(dp1139
sI11
(dp1140
sI25
(dp1141
sI26
(dp1142
ssI8
(dp1143
I0
g1109
sI4
g1129
sI7
g1137
sI9
(dp1144
sI10
(dp1145
sI11
(dp1146
sI13
(dp1147
sI14
(dp1148
sI15
(dp1149
sI19
(dp1150
sI22
(dp1151
sI23
(dp1152
ssI9
(dp1153
I0
g1110
sI7
g1138
sI8
g1144
sI10
(dp1154
sI11
(dp1155
sI12
(dp1156
ssI10
(dp1157
I7
g1139
sI8
g1145
sI9
g1154
sI11
(dp1158
sI12
(dp1159
sI13
(dp1160
sI14
(dp1161
sI15
(dp1162
sI20
(dp1163
sI21
(dp1164
ssI11
(dp1165
I3
g1123
sI7
g1140
sI8
g1146
sI9
g1155
sI10
g1158
sI13
(dp1166
sI14
(dp1167
sI16
(dp1168
ssI12
(dp1169
I9
g1156
sI10
g1159
ssI13
(dp1170
I8
g1147
sI10
g1160
sI11
g1166
sI14
(dp1171
sI16
(dp1172
sI17
(dp1173
sI27
(dp1174
sI30
(dp1175
ssI14
(dp1176
I8
g1148
sI11
g1167
sI10
g1161
sI3
g1124
sI13
g1171
ssI15
(dp1177
I8
g1149
sI10
g1162
ssI16
(dp1178
I11
g1168
sI13
g1172
ssI17
(dp1179
I32
(dp1180
sI13
g1173
sI20
(dp1181
sI21
(dp1182
sI27
(dp1183
sI31
(dp1184
ssI18
(dp1185
I0
g1111
sI4
g1130
ssI19
(dp1186
I8
g1150
sI4
g1131
ssI20
(dp1187
I17
g1181
sI10
g1163
sI27
(dp1188
sI28
(dp1189
sI29
(dp1190
ssI21
(dp1191
I17
g1182
sI10
g1164
sI33
(dp1192
sI30
(dp1193
sI31
(dp1194
ssI22
(dp1195
I8
g1151
sI3
g1125
ssI23
(dp1196
I8
g1152
sI3
g1126
ssI24
(dp1197
I2
g1119
sI4
g1132
ssI25
(dp1198
I26
(dp1199
sI7
g1141
ssI26
(dp1200
I25
g1199
sI7
g1142
ssI27
(dp1201
I17
g1183
sI20
g1188
sI13
g1174
sI28
(dp1202
sI29
(dp1203
ssI28
(dp1204
I27
g1202
sI20
g1189
ssI29
(dp1205
I27
g1203
sI20
g1190
ssI30
(dp1206
I31
(dp1207
sI21
g1193
sI13
g1175
ssI31
(dp1208
I32
(dp1209
sI17
g1184
sI21
g1194
sI30
g1207
sI33
(dp1210
ssI32
(dp1211
I17
g1180
sI31
g1209
ssI33
(dp1212
I21
g1192
sI31
g1210
sssg157
(dp1213
sg159
g44
sg160
g1102
sbag2
(g3
g4
NtRp1214
(dp1215
g7
(dp1216
I0
(dp1217
sI1
(dp1218
sI2
(dp1219
sI3
(dp1220
sI4
(dp1221
sI5
(dp1222
sI6
(dp1223
sI7
(dp1224
sI8
(dp1225
sI9
(dp1226
sI10
(dp1227
sI11
(dp1228
sI12
(dp1229
sI13
(dp1230
sI14
(dp1231
sI15
(dp1232
sI16
(dp1233
sI17
(dp1234
sI18
(dp1235
sI19
(dp1236
sI20
(dp1237
sI21
(dp1238
sI22
(dp1239
sI23
(dp1240
sI24
(dp1241
sI25
(dp1242
sI26
(dp1243
sI27
(dp1244
sI28
(dp1245
sI29
(dp1246
sI30
(dp1247
sI31
(dp1248
sI32
(dp1249
sI33
(dp1250
ssg43
g44
sg45
g44
sg46
(dp1251
I0
(dp1252
I1
(dp1253
sI2
(dp1254
sI3
(dp1255
sI6
(dp1256
sI7
(dp1257
sI9
(dp1258
sI10
(dp1259
sI13
(dp1260
sI14
(dp1261
sI16
(dp1262
sI28
(dp1263
ssI1
(dp1264
I0
g1253
sI33
(dp1265
sI2
(dp1266
sI3
(dp1267
sI6
(dp1268
sI8
(dp1269
sI9
(dp1270
sI10
(dp1271
sI13
(dp1272
sI14
(dp1273
sI16
(dp1274
sI19
(dp1275
sI23
(dp1276
sI27
(dp1277
sI29
(dp1278
ssI2
(dp1279
I0
g1254
sI1
g1266
sI3
(dp1280
sI5
(dp1281
sI7
(dp1282
sI26
(dp1283
ssI3
(dp1284
I0
g1255
sI1
g1267
sI2
g1280
sI4
(dp1285
sI7
(dp1286
sI8
(dp1287
sI9
(dp1288
sI12
(dp1289
sI16
(dp1290
sI17
(dp1291
sI18
(dp1292
sI19
(dp1293
sI20
(dp1294
sI21
(dp1295
sI22
(dp1296
sI23
(dp1297
sI24
(dp1298
sI25
(dp1299
sI26
(dp1300
ssI4
(dp1301
I3
g1285
sI5
(dp1302
sI8
(dp1303
sI9
(dp1304
sI11
(dp1305
sI15
(dp1306
ssI5
(dp1307
I2
g1281
sI4
g1302
ssI6
(dp1308
I0
g1256
sI1
g1268
ssI7
(dp1309
I0
g1257
sI16
(dp1310
sI2
g1282
sI3
g1286
ssI8
(dp1311
I1
g1269
sI3
g1287
sI4
g1303
sI9
(dp1312
sI11
(dp1313
sI12
(dp1314
sI15
(dp1315
sI17
(dp1316
sI18
(dp1317
sI20
(dp1318
sI21
(dp1319
sI22
(dp1320
sI24
(dp1321
sI25
(dp1322
sI28
(dp1323
ssI9
(dp1324
I0
g1258
sI1
g1270
sI3
g1288
sI4
g1304
sI32
(dp1325
sI8
g1312
sI28
(dp1326
sI29
(dp1327
sI30
(dp1328
sI31
(dp1329
ssI10
(dp1330
I0
g1259
sI1
g1271
ssI11
(dp1331
I8
g1313
sI4
g1305
ssI12
(dp1332
I8
g1314
sI3
g1289
ssI13
(dp1333
I0
g1260
sI1
g1272
ssI14
(dp1334
I0
g1261
sI1
g1273
ssI15
(dp1335
I8
g1315
sI4
g1306
ssI16
(dp1336
I0
g1262
sI1
g1274
sI3
g1290
sI7
g1310
ssI17
(dp1337
I8
g1316
sI3
g1291
ssI18
(dp1338
I8
g1317
sI3
g1292
ssI19
(dp1339
I1
g1275
sI3
g1293
ssI20
(dp1340
I8
g1318
sI3
g1294
ssI21
(dp1341
I8
g1319
sI3
g1295
ssI22
(dp1342
I8
g1320
sI3
g1296
ssI23
(dp1343
I1
g1276
sI3
g1297
ssI24
(dp1344
I8
g1321
sI3
g1298
ssI25
(dp1345
I8
g1322
sI3
g1299
ssI26
(dp1346
I2
g1283
sI3
g1300
ssI27
(dp1347
I1
g1277
ssI28
(dp1348
I0
g1263
sI33
(dp1349
sI8
g1323
sI9
g1326
sI29
(dp1350
sI30
(dp1351
ssI29
(dp1352
I9
g1327
sI28
g1350
sI33
(dp1353
sI30
(dp1354
sI1
g1278
ssI30
(dp1355
I32
(dp1356
sI9
g1328
sI28
g1351
sI29
g1354
sI31
(dp1357
ssI31
(dp1358
I9
g1329
sI30
g1357
ssI32
(dp1359
I9
g1325
sI30
g1356
ssI33
(dp1360
I1
g1265
sI28
g1349
sI29
g1353
sssg157
(dp1361
sg159
g44
sg160
g1251
sbag2
(g3
g4
NtRp1362
(dp1363
g7
(dp1364
I0
(dp1365
sI1
(dp1366
sI2
(dp1367
sI3
(dp1368
sI4
(dp1369
sI5
(dp1370
sI6
(dp1371
sI7
(dp1372
sI8
(dp1373
sI9
(dp1374
sI10
(dp1375
sI11
(dp1376
sI12
(dp1377
sI13
(dp1378
sI14
(dp1379
sI15
(dp1380
sI16
(dp1381
sI17
(dp1382
sI18
(dp1383
sI19
(dp1384
sI20
(dp1385
sI21
(dp1386
sI22
(dp1387
sI23
(dp1388
sI24
(dp1389
sI25
(dp1390
sI26
(dp1391
sI27
(dp1392
sI28
(dp1393
sI29
(dp1394
sI30
(dp1395
sI31
(dp1396
sI32
(dp1397
sI33
(dp1398
ssg43
g44
sg45
g44
sg46
(dp1399
I0
(dp1400
I1
(dp1401
sI2
(dp1402
sI3
(dp1403
sI5
(dp1404
sI6
(dp1405
sI11
(dp1406
sI18
(dp1407
ssI1
(dp1408
I0
g1401
sI2
(dp1409
sI3
(dp1410
sI7
(dp1411
ssI2
(dp1412
I0
g1402
sI1
g1409
sI3
(dp1413
sI5
(dp1414
sI6
(dp1415
sI8
(dp1416
sI9
(dp1417
sI18
(dp1418
sI19
(dp1419
sI26
(dp1420
ssI3
(dp1421
I0
g1403
sI1
g1410
sI2
g1413
sI4
(dp1422
sI5
(dp1423
sI6
(dp1424
sI7
(dp1425
sI10
(dp1426
sI11
(dp1427
sI15
(dp1428
sI16
(dp1429
sI19
(dp1430
sI21
(dp1431
sI23
(dp1432
sI24
(dp1433
sI26
(dp1434
sI27
(dp1435
sI28
(dp1436
sI29
(dp1437
ssI4
(dp1438
I3
g1422
sI6
(dp1439
ssI5
(dp1440
I0
g1404
sI32
(dp1441
sI2
g1414
sI3
g1423
sI7
(dp1442
sI15
(dp1443
sI28
(dp1444
sI29
(dp1445
sI30
(dp1446
sI31
(dp1447
ssI6
(dp1448
I0
g1405
sI2
g1415
sI3
g1424
sI4
g1439
sI8
(dp1449
sI10
(dp1450
sI11
(dp1451
sI13
(dp1452
sI16
(dp1453
sI18
(dp1454
sI22
(dp1455
ssI7
(dp1456
I1
g1411
sI3
g1425
sI5
g1442
sI33
(dp1457
sI9
(dp1458
sI15
(dp1459
sI19
(dp1460
sI27
(dp1461
ssI8
(dp1462
I2
g1416
sI6
g1449
sI10
(dp1463
sI11
(dp1464
sI12
(dp1465
sI14
(dp1466
sI20
(dp1467
sI25
(dp1468
ssI9
(dp1469
I2
g1417
sI15
(dp1470
sI7
g1458
ssI10
(dp1471
I3
g1426
sI6
g1450
sI8
g1463
sI11
(dp1472
sI12
(dp1473
sI13
(dp1474
sI14
(dp1475
sI16
(dp1476
sI17
(dp1477
sI20
(dp1478
sI22
(dp1479
sI25
(dp1480
ssI11
(dp1481
I0
g1406
sI3
g1427
sI6
g1451
sI8
g1464
sI10
g1472
sI16
(dp1482
ssI12
(dp1483
I8
g1465
sI10
g1473
ssI13
(dp1484
I10
g1474
sI6
g1452
ssI14
(dp1485
I8
g1466
sI10
g1475
ssI15
(dp1486
I32
(dp1487
sI33
(dp1488
sI3
g1428
sI5
g1443
sI7
g1459
sI9
g1470
sI27
(dp1489
sI28
(dp1490
sI29
(dp1491
sI30
(dp1492
sI31
(dp1493
ssI16
(dp1494
I3
g1429
sI10
g1476
sI11
g1482
sI6
g1453
ssI17
(dp1495
I10
g1477
sI20
(dp1496
ssI18
(dp1497
I0
g1407
sI2
g1418
sI6
g1454
ssI19
(dp1498
I2
g1419
sI3
g1430
sI26
(dp1499
sI7
g1460
ssI20
(dp1500
I8
g1467
sI17
g1496
sI10
g1478
ssI21
(dp1501
I3
g1431
sI23
(dp1502
ssI22
(dp1503
I10
g1479
sI6
g1455
ssI23
(dp1504
I3
g1432
sI21
g1502
ssI24
(dp1505
I3
g1433
ssI25
(dp1506
I8
g1468
sI10
g1480
ssI26
(dp1507
I19
g1499
sI2
g1420
sI3
g1434
ssI27
(dp1508
I3
g1435
sI33
(dp1509
sI15
g1489
sI28
(dp1510
sI7
g1461
ssI28
(dp1511
I3
g1436
sI27
g1510
sI29
(dp1512
sI5
g1444
sI15
g1490
ssI29
(dp1513
I3
g1437
sI28
g1512
sI5
g1445
sI15
g1491
ssI30
(dp1514
I5
g1446
sI15
g1492
ssI31
(dp1515
I5
g1447
sI15
g1493
ssI32
(dp1516
I5
g1441
sI15
g1487
ssI33
(dp1517
I7
g1457
sI27
g1509
sI15
g1488
sssg157
(dp1518
sg159
g44
sg160
g1399
sba.